(ifileListing.fl_class
FileListing
p0
(dp1
S'username'
p2
S'foo'
p3
sS'files_priv'
p4
(lp5
sS'files_open'
p6
(lp7
S'SwiftKey Keyboard v4.0.0.106.apk'
p8
aS'b.txt'
p9
aS'Aptana_Studio_3_Setup_Linux_x86_64_3.4.0.zip'
p10
aS'lubuntu-13.04-desktop-amd64.iso.torrent'
p11
aS'a.txt'
p12
asS'meta_priv'
p13
(dp14
sS'meta_open'
p15
(dp16
g8
(I8056861
tp17
sg10
(I129747180
tp18
sg12
(I28
tp19
sg11
(I27947
tp20
sg9
(I10
tp21
ssS'friends'
p22
(lp23
sS'ip_add'
p24
S'127.0.0.1'
p25
sb.