(ifileListing.fl_class
FileListing
p0
(dp1
S'username'
p2
S'Mobile'
p3
sS'files_priv'
p4
(lp5
sS'files_open'
p6
(lp7
S'sample.txt'
p8
asS'meta_priv'
p9
(dp10
sS'meta_open'
p11
(dp12
g8
(L90L
tp13
ssS'friends'
p14
(lp15
sS'ip_add'
p16
S'192.168.43.1'
p17
sb.